target datalayout = "e-m:e-p270:32:32-p271:32:32-p272:64:64-i64:64-i128:128-f80:128-n8:16:32:64-S128"
target triple = "x86_64-pc-linux-gnu"

%struct._XSettingsClient = type { ptr, i32, ptr, ptr, ptr, ptr, ptr, i64, i64, i64, i64, ptr }
%struct.anon.0 = type { ptr, ptr, i32, i32, i32, i32, ptr, i64, i64, i64, i32, ptr, i32, i32, i32, i32, i32, ptr, i32, i32, ptr, ptr, i32, i64, i64, ptr, ptr, ptr, ptr, i32, ptr, ptr, ptr, i32, i32, ptr, i64, i64, i32, i32, ptr, ptr, i32, ptr }
%struct.Screen = type { ptr, ptr, i64, i32, i32, i32, i32, i32, ptr, i32, ptr, ptr, i64, i64, i64, i32, i32, i32, i32, i64 }
%struct._XSettingsList = type { ptr, ptr }
%struct._XSettingsSetting = type { ptr, i32, %union.anon.1, i64 }
%union.anon.1 = type { ptr }

; Function Attrs: nounwind uwtable
define hidden void @xsettings_setting_free(ptr noundef %0) #0 {
  %2 = alloca ptr, align 8
  store ptr %0, ptr %2, align 8
  %3 = load ptr, ptr %2, align 8
  %4 = getelementptr inbounds nuw %struct._XSettingsSetting, ptr %3, i32 0, i32 1
  %5 = load i32, ptr %4, align 8
  %6 = icmp eq i32 %5, 1
  br i1 %6, label %7, label %11

7:                                                ; preds = %1
  %8 = load ptr, ptr %2, align 8
  %9 = getelementptr inbounds nuw %struct._XSettingsSetting, ptr %8, i32 0, i32 2
  %10 = load ptr, ptr %9, align 8
  call void @free(ptr noundef %10) #6
  br label %11

11:                                               ; preds = %7, %1
  %12 = load ptr, ptr %2, align 8
  %13 = getelementptr inbounds nuw %struct._XSettingsSetting, ptr %12, i32 0, i32 0
  %14 = load ptr, ptr %13, align 8
  %15 = icmp ne ptr %14, null
  br i1 %15, label %16, label %20

16:                                               ; preds = %11
  %17 = load ptr, ptr %2, align 8
  %18 = getelementptr inbounds nuw %struct._XSettingsSetting, ptr %17, i32 0, i32 0
  %19 = load ptr, ptr %18, align 8
  call void @free(ptr noundef %19) #6
  br label %20

20:                                               ; preds = %16, %11
  %21 = load ptr, ptr %2, align 8
  call void @free(ptr noundef %21) #6
  ret void
}

; Function Attrs: nounwind uwtable
define hidden void @xsettings_list_free(ptr noundef %0) #0 {
  %2 = alloca ptr, align 8
  %3 = alloca ptr, align 8
  store ptr %0, ptr %2, align 8
  br label %4

4:                                                ; preds = %7, %1
  %5 = load ptr, ptr %2, align 8
  %6 = icmp ne ptr %5, null
  br i1 %6, label %7, label %16

7:                                                ; preds = %4
  call void @llvm.lifetime.start.p0(i64 8, ptr %3) #6
  %8 = load ptr, ptr %2, align 8
  %9 = getelementptr inbounds nuw %struct._XSettingsList, ptr %8, i32 0, i32 1
  %10 = load ptr, ptr %9, align 8
  store ptr %10, ptr %3, align 8
  %11 = load ptr, ptr %2, align 8
  %12 = getelementptr inbounds nuw %struct._XSettingsList, ptr %11, i32 0, i32 0
  %13 = load ptr, ptr %12, align 8
  call void @xsettings_setting_free(ptr noundef %13)
  %14 = load ptr, ptr %2, align 8
  call void @free(ptr noundef %14) #6
  %15 = load ptr, ptr %3, align 8
  store ptr %15, ptr %2, align 8
  call void @llvm.lifetime.end.p0(i64 8, ptr %3) #6
  br label %4, !llvm.loop !3

16:                                               ; preds = %4
  ret void
}

; Function Attrs: nounwind uwtable
define hidden void @xsettings_client_destroy(ptr noundef %0) #0 {
  %2 = alloca ptr, align 8
  store ptr %0, ptr %2, align 8
  %3 = load ptr, ptr %2, align 8
  %4 = getelementptr inbounds nuw %struct._XSettingsClient, ptr %3, i32 0, i32 3
  %5 = load ptr, ptr %4, align 8
  %6 = icmp ne ptr %5, null
  br i1 %6, label %7, label %27

7:                                                ; preds = %1
  %8 = load ptr, ptr %2, align 8
  %9 = getelementptr inbounds nuw %struct._XSettingsClient, ptr %8, i32 0, i32 3
  %10 = load ptr, ptr %9, align 8
  %11 = load ptr, ptr %2, align 8
  %12 = getelementptr inbounds nuw %struct._XSettingsClient, ptr %11, i32 0, i32 0
  %13 = load ptr, ptr %12, align 8
  %14 = getelementptr inbounds nuw %struct.anon.0, ptr %13, i32 0, i32 35
  %15 = load ptr, ptr %14, align 8
  %16 = load ptr, ptr %2, align 8
  %17 = getelementptr inbounds nuw %struct._XSettingsClient, ptr %16, i32 0, i32 1
  %18 = load i32, ptr %17, align 8
  %19 = sext i32 %18 to i64
  %20 = getelementptr inbounds %struct.Screen, ptr %15, i64 %19
  %21 = getelementptr inbounds nuw %struct.Screen, ptr %20, i32 0, i32 2
  %22 = load i64, ptr %21, align 8
  %23 = load ptr, ptr %2, align 8
  %24 = getelementptr inbounds nuw %struct._XSettingsClient, ptr %23, i32 0, i32 4
  %25 = load ptr, ptr %24, align 8
  %26 = call i32 %10(i64 noundef %22, i32 noundef 0, i64 noundef 0, ptr noundef %25)
  br label %27

27:                                               ; preds = %7, %1
  %28 = load ptr, ptr %2, align 8
  %29 = getelementptr inbounds nuw %struct._XSettingsClient, ptr %28, i32 0, i32 7
  %30 = load i64, ptr %29, align 8
  %31 = icmp ne i64 %30, 0
  br i1 %31, label %32, label %48

32:                                               ; preds = %27
  %33 = load ptr, ptr %2, align 8
  %34 = getelementptr inbounds nuw %struct._XSettingsClient, ptr %33, i32 0, i32 3
  %35 = load ptr, ptr %34, align 8
  %36 = icmp ne ptr %35, null
  br i1 %36, label %37, label %48

37:                                               ; preds = %32
  %38 = load ptr, ptr %2, align 8
  %39 = getelementptr inbounds nuw %struct._XSettingsClient, ptr %38, i32 0, i32 3
  %40 = load ptr, ptr %39, align 8
  %41 = load ptr, ptr %2, align 8
  %42 = getelementptr inbounds nuw %struct._XSettingsClient, ptr %41, i32 0, i32 7
  %43 = load i64, ptr %42, align 8
  %44 = load ptr, ptr %2, align 8
  %45 = getelementptr inbounds nuw %struct._XSettingsClient, ptr %44, i32 0, i32 4
  %46 = load ptr, ptr %45, align 8
  %47 = call i32 %40(i64 noundef %43, i32 noundef 0, i64 noundef 0, ptr noundef %46)
  br label %48

48:                                               ; preds = %37, %32, %27
  %49 = load ptr, ptr %2, align 8
  %50 = getelementptr inbounds nuw %struct._XSettingsClient, ptr %49, i32 0, i32 11
  %51 = load ptr, ptr %50, align 8
  call void @xsettings_list_free(ptr noundef %51)
  %52 = load ptr, ptr %2, align 8
  call void @free(ptr noundef %52) #6
  ret void
}