; Function Attrs: nounwind uwtable
define hidden void @xsettings_client_destroy(ptr noundef captures(none) %0) local_unnamed_addr #0 {
  %2 = getelementptr inbounds nuw i8, ptr %0, i64 24
  %3 = load ptr, ptr %2, align 8
  %.not = icmp eq ptr %3, null
  br i1 %.not, label %16, label %4

4:                                                ; preds = %1
  %5 = load ptr, ptr %0, align 8
  %6 = getelementptr inbounds nuw i8, ptr %5, i64 232
  %7 = load ptr, ptr %6, align 8
  %8 = getelementptr inbounds nuw i8, ptr %0, i64 8
  %9 = load i32, ptr %8, align 8
  %10 = sext i32 %9 to i64
  %11 = getelementptr inbounds %struct.Screen, ptr %7, i64 %10, i32 2
  %12 = load i64, ptr %11, align 8
  %13 = getelementptr inbounds nuw i8, ptr %0, i64 32
  %14 = load ptr, ptr %13, align 8
  %15 = tail call i32 %3(i64 noundef %12, i32 noundef 0, i64 noundef 0, ptr noundef %14) #14
  br label %16

16:                                               ; preds = %4, %1
  %17 = getelementptr inbounds nuw i8, ptr %0, i64 56
  %18 = load i64, ptr %17, align 8
  %.not14 = icmp eq i64 %18, 0
  br i1 %.not14, label %25, label %19

19:                                               ; preds = %16
  %20 = load ptr, ptr %2, align 8
  %.not15 = icmp eq ptr %20, null
  br i1 %.not15, label %25, label %21

21:                                               ; preds = %19
  %22 = getelementptr inbounds nuw i8, ptr %0, i64 32
  %23 = load ptr, ptr %22, align 8
  %24 = tail call i32 %20(i64 noundef %18, i32 noundef 0, i64 noundef 0, ptr noundef %23) #14
  br label %25

25:                                               ; preds = %21, %19, %16
  %26 = getelementptr inbounds nuw i8, ptr %0, i64 88
  %27 = load ptr, ptr %26, align 8
  %.not5.i = icmp eq ptr %27, null
  br i1 %.not5.i, label %xsettings_list_free.exit, label %.lr.ph.i

.lr.ph.i:                                         ; preds = %25, %xsettings_setting_free.exit.i
  %.06.i = phi ptr [ %29, %xsettings_setting_free.exit.i ], [ %27, %25 ]
  %28 = getelementptr inbounds nuw i8, ptr %.06.i, i64 8
  %29 = load ptr, ptr %28, align 8
  %30 = load ptr, ptr %.06.i, align 8
  %31 = getelementptr inbounds nuw i8, ptr %30, i64 8
  %32 = load i32, ptr %31, align 8
  %33 = icmp eq i32 %32, 1
  br i1 %33, label %34, label %37

34:                                               ; preds = %.lr.ph.i
  %35 = getelementptr inbounds nuw i8, ptr %30, i64 16
  %36 = load ptr, ptr %35, align 8
  tail call void @free(ptr noundef %36) #14
  br label %37

37:                                               ; preds = %34, %.lr.ph.i
  %38 = load ptr, ptr %30, align 8
  %.not.i.i = icmp eq ptr %38, null
  br i1 %.not.i.i, label %xsettings_setting_free.exit.i, label %39

39:                                               ; preds = %37
  tail call void @free(ptr noundef nonnull %38) #14
  br label %xsettings_setting_free.exit.i

xsettings_setting_free.exit.i:                    ; preds = %39, %37
  tail call void @free(ptr noundef nonnull %30) #14
  tail call void @free(ptr noundef nonnull %.06.i) #14
  %.not.i = icmp eq ptr %29, null
  br i1 %.not.i, label %xsettings_list_free.exit, label %.lr.ph.i, !llvm.loop !3

xsettings_list_free.exit:                         ; preds = %xsettings_setting_free.exit.i, %25
  tail call void @free(ptr noundef %0) #14
  ret void
}